(dp0
I0
(lp1
VIn the 20th\ufffdcentury, a light-aircraft factory, a college, and a paper mill, along with many smaller enterprises, drove the economy.
p2
aVThe city has three sites on the National Register of Historic Places\u2014Memorial Park Site, a significant pre-European archaeological find; Heisey House, a Victorian-era museum; and Water Street District, an area with a mix of 19th- and 20th-century architecture.
p3
aS'A television station, Havenscope, and a radio station, WLHU, both managed by students, operate on the university campus.'
p4
aVLocated near the confluence of the West Branch Susquehanna River and Bald Eagle Creek, it is the principal city of the Lock Haven, Pennsylvania, micropolitan statistical area, itself part of the Williamsport\u2013Lock Haven combined statistical area.
p5
aVAn eight-room home, the Heisey House, restored to its mid-19th century appearance, displays Victorian-era collections; it was added to the National Register of Historic Places in 1972 and is home to the Clinton County Historical Society.
p6
aS'The city sponsors a festival called Airfest at the airport in the summer, a Halloween parade in October, and a holiday parade in December.'
p7
aVBuilt on a site long favored by pre-European peoples, Lock Haven began in 1833 as a timber town and a haven for loggers, boatmen, and other travelers on the river or the West Branch Canal.
p8
aVThe central library for Clinton County is the Annie Halenbake Ross Library in Lock Haven; it has about 130,000\ufffdbooks, subscriptions to periodicals, electronic resources, and other materials.
p9
aVThe Piper Aviation Museum exhibits aircraft and aircraft equipment, documents, photographs, and memorabilia related to Piper Aircraft.
p10
aVWhile industry remains important to the city, about a third of Lock Haven's workforce is employed in education, health care, or social services.
p11
as.