(dp0
I0
(lp1
VDuring those same years, the rate of home ownership was 34.0%, and the median value of owner-occupied units was $91,600.
p2
aVThe median income for a household in the city was $27,055.
p3
aVThe city's biggest employers, Lock Haven University of Pennsylvania and Lock Haven Hospital, are among the seven biggest employers in Clinton County.
p4
aVLock Haven is at 561 feet (171\ufffdm) above sea level near the confluence of Bald Eagle Creek and the West Branch Susquehanna River in north-central Pennsylvania.
p5
aVThe average household size was 2.14.
p6
aVCentral Mountain Middle School in Mill Hall is the nearest public middle school, for grades six to eight.
p7
aVThe geologic formations in the southeastern part of the city are mostly limestone, while those to the north and west consist mostly of siltstone and shale.
p8
aVThe city has two private schools, Lock Haven Christian School, with about 80\ufffdstudents in kindergarten through 12th\ufffdgrade, and Lock Haven Catholic Elementary School, with about 190\ufffdstudents in kindergarten through sixth grade.
p9
aVAbout 0.2 square miles (0.5\ufffdkm2), 6\ufffdpercent, is water.
p10
aVIt was the westernmost of 11 mostly primitive forts along the West Branch; Fort Augusta, at what is now Sunbury, was the easternmost and most defensible.
p11
as.